target datalayout = "e-m:e-p270:32:32-p271:32:32-p272:64:64-i64:64-i128:128-f80:128-n8:16:32:64-S128"
target triple = "x86_64-pc-linux-gnu"

%struct._zval_struct = type { %union._zend_value, %union.anon.0, %union.anon.3 }
%union._zend_value = type { i64 }
%union.anon.0 = type { i32 }
%union.anon.3 = type { i32 }
%struct._xmlNode = type { ptr, i32, ptr, ptr, ptr, ptr, ptr, ptr, ptr, ptr, ptr, ptr, ptr, ptr, i16, i16 }

; Function Attrs: nounwind uwtable
define hidden i32 @dom_node_next_element_sibling_read(ptr noundef %0, ptr noundef %1) #0 {
  %3 = alloca i32, align 4
  %4 = alloca ptr, align 8
  %5 = alloca ptr, align 8
  %6 = alloca ptr, align 8
  %7 = alloca ptr, align 8
  store ptr %0, ptr %4, align 8
  store ptr %1, ptr %5, align 8
  %8 = load ptr, ptr %4, align 8
  %9 = call ptr @dom_object_get_node(ptr noundef %8)
  store ptr %9, ptr %6, align 8
  %10 = load ptr, ptr %6, align 8
  %11 = icmp eq ptr %10, null
  br i1 %11, label %12, label %13

12:                                               ; preds = %2
  call void @php_dom_throw_error(i32 noundef 11, i32 noundef 1)
  store i32 -1, ptr %3, align 4
  br label %44

13:                                               ; preds = %2
  %14 = load ptr, ptr %6, align 8
  %15 = getelementptr inbounds %struct._xmlNode, ptr %14, i32 0, i32 6
  %16 = load ptr, ptr %15, align 8
  store ptr %16, ptr %7, align 8
  br label %17

17:                                               ; preds = %27, %13
  %18 = load ptr, ptr %7, align 8
  %19 = icmp ne ptr %18, null
  br i1 %19, label %20, label %25

20:                                               ; preds = %17
  %21 = load ptr, ptr %7, align 8
  %22 = getelementptr inbounds %struct._xmlNode, ptr %21, i32 0, i32 1
  %23 = load i32, ptr %22, align 8
  %24 = icmp ne i32 %23, 1
  br label %25

25:                                               ; preds = %20, %17
  %26 = phi i1 [ false, %17 ], [ %24, %20 ]
  br i1 %26, label %27, label %31

27:                                               ; preds = %25
  %28 = load ptr, ptr %7, align 8
  %29 = getelementptr inbounds %struct._xmlNode, ptr %28, i32 0, i32 6
  %30 = load ptr, ptr %29, align 8
  store ptr %30, ptr %7, align 8
  br label %17

31:                                               ; preds = %25
  %32 = load ptr, ptr %7, align 8
  %33 = icmp ne ptr %32, null
  br i1 %33, label %39, label %34

34:                                               ; preds = %31
  br label %35

35:                                               ; preds = %34
  %36 = load ptr, ptr %5, align 8
  %37 = getelementptr inbounds %struct._zval_struct, ptr %36, i32 0, i32 1
  store i32 1, ptr %37, align 8
  br label %38

38:                                               ; preds = %35
  store i32 0, ptr %3, align 4
  br label %44

39:                                               ; preds = %31
  %40 = load ptr, ptr %7, align 8
  %41 = load ptr, ptr %5, align 8
  %42 = load ptr, ptr %4, align 8
  %43 = call zeroext i1 @php_dom_create_object(ptr noundef %40, ptr noundef %41, ptr noundef %42)
  store i32 0, ptr %3, align 4
  br label %44

44:                                               ; preds = %39, %38, %12
  %45 = load i32, ptr %3, align 4
  ret i32 %45
}