; Function Attrs: nounwind uwtable
define hidden noundef i32 @dom_node_next_element_sibling_read(ptr noundef %0, ptr noundef %1) local_unnamed_addr #0 {
  %3 = tail call ptr @dom_object_get_node(ptr noundef %0) #12
  %4 = icmp eq ptr %3, null
  br i1 %4, label %5, label %.preheader

5:                                                ; preds = %2
  tail call void @php_dom_throw_error(i32 noundef 11, i32 noundef 1) #12
  br label %11

.preheader:                                       ; preds = %2, %6
  %.pn = phi ptr [ %.0, %6 ], [ %3, %2 ]
  %.0.in = getelementptr inbounds i8, ptr %.pn, i64 48
  %.0 = load ptr, ptr %.0.in, align 8
  %.not = icmp eq ptr %.0, null
  br i1 %.not, label %.critedge14, label %6

6:                                                ; preds = %.preheader
  %7 = getelementptr inbounds i8, ptr %.0, i64 8
  %8 = load i32, ptr %7, align 8
  %.not13 = icmp eq i32 %8, 1
  br i1 %.not13, label %.critedge, label %.preheader

.critedge14:                                      ; preds = %.preheader
  %9 = getelementptr inbounds i8, ptr %1, i64 8
  store i32 1, ptr %9, align 8
  br label %11

.critedge:                                        ; preds = %6
  %10 = tail call zeroext i1 @php_dom_create_object(ptr noundef nonnull %.0, ptr noundef %1, ptr noundef %0) #12
  br label %11

11:                                               ; preds = %.critedge, %.critedge14, %5
  %.011 = phi i32 [ -1, %5 ], [ 0, %.critedge ], [ 0, %.critedge14 ]
  ret i32 %.011
}